; Function Attrs: nounwind uwtable
define void @lv_display_add_event_cb(ptr noundef %0, ptr noundef %1, i32 noundef %2, ptr noundef %3) local_unnamed_addr #0 {
  %.not = icmp eq ptr %0, null
  br i1 %.not, label %.preheader, label %5

.preheader:                                       ; preds = %4, %.preheader
  br label %.preheader

5:                                                ; preds = %4
  %6 = getelementptr inbounds nuw i8, ptr %0, i64 856
  %7 = tail call ptr @lv_event_add(ptr noundef nonnull %6, ptr noundef %1, i32 noundef %2, ptr noundef %3) #13
  ret void
}